   1               		.file	"conio.c"
   2               		.arch atmega64
   3               	__SREG__ = 0x3f
   4               	__SP_H__ = 0x3e
   5               	__SP_L__ = 0x3d
   6               	__tmp_reg__ = 0
   7               	__zero_reg__ = 1
   8               		.global __do_copy_data
   9               		.global __do_clear_bss
  17               	.Ltext0:
  18               	.global	b2X
  20               	b2X:
  21               	.LFB9:
  22               	.LM1:
  23               	/* prologue: frame size=0 */
  24 0000 CF93      		push r28
  25 0002 DF93      		push r29
  26               	/* prologue end (size=2) */
  27               	.LVL0:
  28 0004 382F      		mov r19,r24
  29 0006 FB01      		movw r30,r22
  30               	.LM2:
  31 0008 282F      		mov r18,r24
  32 000a 2295      		swap r18
  33 000c 2F70      		andi r18,0x0f
  34 000e 822F      		mov r24,r18
  35 0010 9927      		clr r25
  36               	.LVL1:
  37 0012 2F70      		andi r18,lo8(15)
  38 0014 0A97      		sbiw r24,10
  39 0016 04F4      		brge .L2
  40               	.LVL2:
  41               	.LM3:
  42 0018 205D      		subi r18,lo8(-(48))
  43 001a 00C0      		rjmp .L4
  44               	.L2:
  45 001c 295C      		subi r18,lo8(-(55))
  46               	.L4:
  47 001e 2193      		st Z+,r18
  48 0020 DF01      		movw r26,r30
  49               	.LVL3:
  50               	.LM4:
  51 0022 832F      		mov r24,r19
  52 0024 9927      		clr r25
  53 0026 8F70      		andi r24,lo8(15)
  54 0028 9070      		andi r25,hi8(15)
  55 002a 232F      		mov r18,r19
  56 002c 2F70      		andi r18,lo8(15)
  57 002e 0A97      		sbiw r24,10
  58 0030 04F4      		brge .L5
  59               	.LVL4:
  60 0032 205D      		subi r18,lo8(-(48))
  61 0034 00C0      		rjmp .L7
  62               	.L5:
  63 0036 295C      		subi r18,lo8(-(55))
  64               	.L7:
  65 0038 FD01      		movw r30,r26
  66               	.LVL5:
  67 003a 2193      		st Z+,r18
  68               	.LM5:
  69 003c ED01      		movw r28,r26
  70 003e 1982      		std Y+1,__zero_reg__
  71               	.LM6:
  72 0040 CF01      		movw r24,r30
  73               	.LVL6:
  74               	/* epilogue: frame size=0 */
  75 0042 DF91      		pop r29
  76 0044 CF91      		pop r28
  77 0046 0895      		ret
  78               	/* epilogue end (size=3) */
  79               	/* function b2X size 38 (33) */
  80               	.LFE9:
  82               	.global	s2X
  84               	s2X:
  85               	.LFB10:
  86               	.LM7:
  87               	/* prologue: frame size=0 */
  88 0048 CF93      		push r28
  89 004a DF93      		push r29
  90               	/* prologue end (size=2) */
  91               	.LVL7:
  92 004c 9C01      		movw r18,r24
  93 004e FB01      		movw r30,r22
  94               	.LVL8:
  95               	.LM8:
  96 0050 892F      		mov r24,r25
  97 0052 9927      		clr r25
  98 0054 8295      		swap r24
  99 0056 8F70      		andi r24,0x0f
 100               	.LVL9:
 101 0058 482F      		mov r20,r24
 102 005a 4F70      		andi r20,lo8(15)
 103 005c 0A97      		sbiw r24,10
 104 005e 00F4      		brsh .L10
 105               	.LM9:
 106 0060 842F      		mov r24,r20
 107 0062 805D      		subi r24,lo8(-(48))
 108 0064 00C0      		rjmp .L12
 109               	.L10:
 110 0066 842F      		mov r24,r20
 111 0068 895C      		subi r24,lo8(-(55))
 112               	.L12:
 113 006a 8193      		st Z+,r24
 114               	.LM10:
 115 006c 832F      		mov r24,r19
 116 006e 9927      		clr r25
 117 0070 482F      		mov r20,r24
 118 0072 4F70      		andi r20,lo8(15)
 119 0074 8F70      		andi r24,lo8(15)
 120 0076 9070      		andi r25,hi8(15)
 121 0078 0A97      		sbiw r24,10
 122 007a 00F4      		brsh .L13
 123 007c 842F      		mov r24,r20
 124 007e 805D      		subi r24,lo8(-(48))
 125 0080 00C0      		rjmp .L15
 126               	.L13:
 127 0082 842F      		mov r24,r20
 128 0084 895C      		subi r24,lo8(-(55))
 129               	.L15:
 130               	.LVL10:
 131 0086 8193      		st Z+,r24
 132               	.LM11:
 133 0088 C901      		movw r24,r18
 134 008a 44E0      		ldi r20,4
 135 008c 9695      	1:	lsr r25
 136 008e 8795      		ror r24
 137 0090 4A95      		dec r20
 138 0092 01F4      		brne 1b
 139 0094 482F      		mov r20,r24
 140 0096 4F70      		andi r20,lo8(15)
 141 0098 8F70      		andi r24,lo8(15)
 142 009a 9070      		andi r25,hi8(15)
 143 009c 0A97      		sbiw r24,10
 144 009e 00F4      		brsh .L16
 145 00a0 842F      		mov r24,r20
 146 00a2 805D      		subi r24,lo8(-(48))
 147 00a4 00C0      		rjmp .L18
 148               	.L16:
 149 00a6 842F      		mov r24,r20
 150 00a8 895C      		subi r24,lo8(-(55))
 151               	.L18:
 152               	.LVL11:
 153 00aa 8193      		st Z+,r24
 154 00ac DF01      		movw r26,r30
 155               	.LVL12:
 156               	.LVL13:
 157 00ae 822F      		mov r24,r18
 158 00b0 8F70      		andi r24,lo8(15)
 159               	.LVL14:
 160 00b2 2F70      		andi r18,lo8(15)
 161 00b4 3070      		andi r19,hi8(15)
 162               	.LM12:
 163 00b6 2A30      		cpi r18,10
 164 00b8 3105      		cpc r19,__zero_reg__
 165 00ba 00F4      		brsh .L19
 166 00bc 805D      		subi r24,lo8(-(48))
 167 00be 00C0      		rjmp .L21
 168               	.L19:
 169 00c0 895C      		subi r24,lo8(-(55))
 170               	.L21:
 171 00c2 FD01      		movw r30,r26
 172               	.LVL15:
 173 00c4 8193      		st Z+,r24
 174               	.LM13:
 175 00c6 ED01      		movw r28,r26
 176 00c8 1982      		std Y+1,__zero_reg__
 177               	.LM14:
 178 00ca CF01      		movw r24,r30
 179               	/* epilogue: frame size=0 */
 180 00cc DF91      		pop r29
 181 00ce CF91      		pop r28
 182 00d0 0895      		ret
 183               	/* epilogue end (size=3) */
 184               	/* function s2X size 72 (67) */
 185               	.LFE10:
 187               	.global	s2ip
 189               	s2ip:
 190               	.LFB11:
 191               	.LM15:
 192               	/* prologue: frame size=0 */
 193 00d2 EF92      		push r14
 194 00d4 FF92      		push r15
 195 00d6 0F93      		push r16
 196 00d8 1F93      		push r17
 197 00da CF93      		push r28
 198 00dc DF93      		push r29
 199               	/* prologue end (size=6) */
 200               	.LVL16:
 201 00de 7C01      		movw r14,r24
 202 00e0 8B01      		movw r16,r22
 203               	.LM16:
 204 00e2 20E0      		ldi r18,lo8(0)
 205 00e4 30E0      		ldi r19,hi8(0)
 206 00e6 40E0      		ldi r20,hlo8(0)
 207 00e8 50E0      		ldi r21,hhi8(0)
 208               	.LVL17:
 209 00ea 90E0      		ldi r25,lo8(0)
 210 00ec D701      		movw r26,r14
 211               	.LVL18:
 212 00ee 7AE0      		ldi r23,lo8(10)
 213 00f0 00C0      		rjmp .L24
 214               	.LVL19:
 215               	.L25:
 216               	.LM17:
 217 00f2 979F      		mul r25,r23
 218 00f4 C001      		movw r24,r0
 219 00f6 1124      		clr r1
 220 00f8 962F      		mov r25,r22
 221 00fa 980F      		add r25,r24
 222 00fc 9053      		subi r25,lo8(-(-48))
 223 00fe 1196      		adiw r26,1
 224               	.LVL20:
 225               	.L24:
 226               	.LM18:
 227 0100 6C91      		ld r22,X
 228 0102 862F      		mov r24,r22
 229 0104 8053      		subi r24,lo8(-(-48))
 230 0106 8A30      		cpi r24,lo8(10)
 231 0108 00F0      		brlo .L25
 232 010a 292F      		mov r18,r25
 233               	.LM19:
 234 010c EA16      		cp r14,r26
 235 010e FB06      		cpc r15,r27
 236 0110 01F4      		brne .+2
 237 0112 00C0      		rjmp .L30
 238               	.LM20:
 239 0114 6E32      		cpi r22,lo8(46)
 240 0116 01F0      		breq .+2
 241 0118 00C0      		rjmp .L30
 242               	.LVL21:
 243 011a 932F      		mov r25,r19
 244 011c FD01      		movw r30,r26
 245 011e 7AE0      		ldi r23,lo8(10)
 246 0120 00C0      		rjmp .L32
 247               	.L33:
 248               	.LM21:
 249 0122 979F      		mul r25,r23
 250 0124 C001      		movw r24,r0
 251 0126 1124      		clr r1
 252 0128 962F      		mov r25,r22
 253 012a 980F      		add r25,r24
 254 012c 9053      		subi r25,lo8(-(-48))
 255               	.L32:
 256               	.LM22:
 257 012e 6181      		ldd r22,Z+1
 258 0130 3196      		adiw r30,1
 259 0132 862F      		mov r24,r22
 260 0134 8053      		subi r24,lo8(-(-48))
 261 0136 8A30      		cpi r24,lo8(10)
 262 0138 00F0      		brlo .L33
 263 013a 392F      		mov r19,r25
 264               	.LM23:
 265 013c AE17      		cp r26,r30
 266 013e BF07      		cpc r27,r31
 267 0140 01F0      		breq .L30
 268               	.LM24:
 269 0142 6E32      		cpi r22,lo8(46)
 270 0144 01F4      		brne .L30
 271               	.LVL22:
 272 0146 942F      		mov r25,r20
 273 0148 DF01      		movw r26,r30
 274               	.LVL23:
 275 014a 7AE0      		ldi r23,lo8(10)
 276 014c 00C0      		rjmp .L37
 277               	.L38:
 278               	.LM25:
 279 014e 979F      		mul r25,r23
 280 0150 C001      		movw r24,r0
 281 0152 1124      		clr r1
 282 0154 962F      		mov r25,r22
 283 0156 980F      		add r25,r24
 284 0158 9053      		subi r25,lo8(-(-48))
 285               	.L37:
 286               	.LM26:
 287 015a ED01      		movw r28,r26
 288 015c 6981      		ldd r22,Y+1
 289 015e 1196      		adiw r26,1
 290 0160 862F      		mov r24,r22
 291 0162 8053      		subi r24,lo8(-(-48))
 292 0164 8A30      		cpi r24,lo8(10)
 293 0166 00F0      		brlo .L38
 294 0168 492F      		mov r20,r25
 295               	.LM27:
 296 016a EA17      		cp r30,r26
 297 016c FB07      		cpc r31,r27
 298 016e 01F0      		breq .L30
 299               	.LM28:
 300 0170 6E32      		cpi r22,lo8(46)
 301 0172 01F4      		brne .L30
 302               	.LVL24:
 303 0174 952F      		mov r25,r21
 304 0176 FD01      		movw r30,r26
 305 0178 7AE0      		ldi r23,lo8(10)
 306 017a 00C0      		rjmp .L42
 307               	.L43:
 308               	.LM29:
 309 017c 979F      		mul r25,r23
 310 017e C001      		movw r24,r0
 311 0180 1124      		clr r1
 312 0182 962F      		mov r25,r22
 313 0184 980F      		add r25,r24
 314 0186 9053      		subi r25,lo8(-(-48))
 315               	.L42:
 316               	.LM30:
 317 0188 6181      		ldd r22,Z+1
 318 018a 3196      		adiw r30,1
 319 018c 862F      		mov r24,r22
 320 018e 8053      		subi r24,lo8(-(-48))
 321 0190 8A30      		cpi r24,lo8(10)
 322 0192 00F0      		brlo .L43
 323 0194 592F      		mov r21,r25
 324               	.LM31:
 325 0196 AE17      		cp r26,r30
 326 0198 BF07      		cpc r27,r31
 327 019a 01F0      		breq .L30
 328               	.LM32:
 329 019c D801      		movw r26,r16
 330 019e 2D93      		st X+,r18
 331 01a0 3D93      		st X+,r19
 332 01a2 4D93      		st X+,r20
 333 01a4 5C93      		st X,r21
 334 01a6 1397      		sbiw r26,3
 335 01a8 CF01      		movw r24,r30
 336               	.LVL25:
 337 01aa 00C0      		rjmp .L29
 338               	.LVL26:
 339               	.L30:
 340               	.LM33:
 341 01ac C701      		movw r24,r14
 342               	.LVL27:
 343               	.L29:
 344               	.LVL28:
 345               	/* epilogue: frame size=0 */
 346 01ae DF91      		pop r29
 347 01b0 CF91      		pop r28
 348 01b2 1F91      		pop r17
 349 01b4 0F91      		pop r16
 350 01b6 FF90      		pop r15
 351 01b8 EF90      		pop r14
 352 01ba 0895      		ret
 353               	/* epilogue end (size=7) */
 354               	/* function s2ip size 117 (104) */
 355               	.LFE11:
 357               	.global	d2s
 359               	d2s:
 360               	.LFB12:
 361               	.LM34:
 362               	/* prologue: frame size=0 */
 363               	/* prologue end (size=0) */
 364               	.LVL29:
 365 01bc FC01      		movw r30,r24
 366 01be 20E0      		ldi r18,lo8(0)
 367 01c0 30E0      		ldi r19,hi8(0)
 368               	.LVL30:
 369 01c2 00C0      		rjmp .L48
 370               	.LVL31:
 371               	.L49:
 372               	.LM35:
 373 01c4 C901      		movw r24,r18
 374 01c6 A3E0      		ldi r26,3
 375 01c8 880F      	1:	lsl r24
 376 01ca 991F      		rol r25
 377 01cc AA95      		dec r26
 378 01ce 01F4      		brne 1b
 379 01d0 220F      		lsl r18
 380 01d2 331F      		rol r19
 381 01d4 280F      		add r18,r24
 382 01d6 391F      		adc r19,r25
 383 01d8 240F      		add r18,r20
 384 01da 311D      		adc r19,__zero_reg__
 385 01dc 2053      		subi r18,lo8(-(-48))
 386 01de 3040      		sbci r19,hi8(-(-48))
 387               	.LM36:
 388 01e0 3196      		adiw r30,1
 389               	.LVL32:
 390               	.L48:
 391               	.LM37:
 392 01e2 4081      		ld r20,Z
 393 01e4 842F      		mov r24,r20
 394 01e6 8053      		subi r24,lo8(-(-48))
 395 01e8 8A30      		cpi r24,lo8(10)
 396 01ea 00F0      		brlo .L49
 397               	.LM38:
 398 01ec C901      		movw r24,r18
 399               	/* epilogue: frame size=0 */
 400 01ee 0895      		ret
 401               	/* epilogue end (size=1) */
 402               	/* function d2s size 26 (25) */
 403               	.LFE12:
 405               	.global	s2p
 407               	s2p:
 408               	.LFB13:
 409               	.LM39:
 410               	/* prologue: frame size=0 */
 411               	/* prologue end (size=0) */
 412               	.LVL33:
 413 01f0 DC01      		movw r26,r24
 414 01f2 FB01      		movw r30,r22
 415               	.LM40:
 416 01f4 1182      		std Z+1,__zero_reg__
 417 01f6 1082      		st Z,__zero_reg__
 418 01f8 00C0      		rjmp .L53
 419               	.LVL34:
 420               	.L54:
 421               	.LM41:
 422 01fa 8081      		ld r24,Z
 423 01fc 9181      		ldd r25,Z+1
 424 01fe 9C01      		movw r18,r24
 425 0200 53E0      		ldi r21,3
 426 0202 220F      	1:	lsl r18
 427 0204 331F      		rol r19
 428 0206 5A95      		dec r21
 429 0208 01F4      		brne 1b
 430 020a 880F      		lsl r24
 431 020c 991F      		rol r25
 432 020e 820F      		add r24,r18
 433 0210 931F      		adc r25,r19
 434 0212 9183      		std Z+1,r25
 435 0214 8083      		st Z,r24
 436               	.LM42:
 437 0216 2D91      		ld r18,X+
 438 0218 820F      		add r24,r18
 439 021a 911D      		adc r25,__zero_reg__
 440 021c C097      		sbiw r24,48
 441 021e 9183      		std Z+1,r25
 442 0220 8083      		st Z,r24
 443               	.LVL35:
 444               	.L53:
 445               	.LM43:
 446 0222 8C91      		ld r24,X
 447 0224 8053      		subi r24,lo8(-(-48))
 448 0226 8A30      		cpi r24,lo8(10)
 449 0228 00F0      		brlo .L54
 450               	.LM44:
 451 022a CD01      		movw r24,r26
 452               	/* epilogue: frame size=0 */
 453 022c 0895      		ret
 454               	/* epilogue end (size=1) */
 455               	/* function s2p size 31 (30) */
 456               	.LFE13:
 458               	.global	_2d
 460               	_2d:
 461               	.LFB14:
 462               	.LM45:
 463               	/* prologue: frame size=0 */
 464 022e 1F93      		push r17
 465 0230 CF93      		push r28
 466 0232 DF93      		push r29
 467               	/* prologue end (size=3) */
 468               	.LVL36:
 469 0234 EC01      		movw r28,r24
 470 0236 FB01      		movw r30,r22
 471 0238 122F      		mov r17,r18
 472               	.LM46:
 473 023a 892B      		or r24,r25
 474 023c 01F0      		breq .L58
 475               	.LVL37:
 476               	.L59:
 477               	.LM47:
 478 023e 9A01      		movw r18,r20
 479               	.LVL38:
 480 0240 40E0      		ldi r20,lo8(0)
 481               	.LVL39:
 482 0242 00C0      		rjmp .L60
 483               	.LVL40:
 484               	.L58:
 485 0244 2223      		tst r18
 486 0246 01F4      		brne .L59
 487               	.LVL41:
 488               	.LM48:
 489 0248 80E3      		ldi r24,lo8(48)
 490               	.LVL42:
 491 024a 8193      		st Z+,r24
 492 024c 00C0      		rjmp .L62
 493               	.LVL43:
 494               	.L63:
 495               	.LM49:
 496 024e CE01      		movw r24,r28
 497 0250 B901      		movw r22,r18
 498               	.LVL44:
 499 0252 0E94 0000 		call __udivmodhi4
 500               	.LVL45:
 501               	.LM50:
 502 0256 6115      		cp r22,__zero_reg__
 503 0258 7105      		cpc r23,__zero_reg__
 504 025a 01F4      		brne .L64
 505 025c 4423      		tst r20
 506 025e 01F4      		brne .L66
 507 0260 00C0      		rjmp .L73
 508               	.L64:
 509               	.LM51:
 510 0262 CB01      		movw r24,r22
 511 0264 8F70      		andi r24,lo8(15)
 512 0266 9070      		andi r25,hi8(15)
 513 0268 0A97      		sbiw r24,10
 514 026a 00F4      		brsh .L68
 515               	.L66:
 516               	.LVL46:
 517 026c 862F      		mov r24,r22
 518 026e 8F70      		andi r24,lo8(15)
 519 0270 805D      		subi r24,lo8(-(48))
 520 0272 00C0      		rjmp .L69
 521               	.LVL47:
 522               	.L68:
 523               	.LVL48:
 524 0274 862F      		mov r24,r22
 525 0276 8F70      		andi r24,lo8(15)
 526 0278 895C      		subi r24,lo8(-(55))
 527               	.L69:
 528 027a 8193      		st Z+,r24
 529               	.LVL49:
 530               	.LM52:
 531 027c 629F      		mul r22,r18
 532 027e C001      		movw r24,r0
 533 0280 639F      		mul r22,r19
 534 0282 900D      		add r25,r0
 535 0284 729F      		mul r23,r18
 536 0286 900D      		add r25,r0
 537 0288 1124      		clr r1
 538 028a C81B      		sub r28,r24
 539 028c D90B      		sbc r29,r25
 540 028e 41E0      		ldi r20,lo8(1)
 541 0290 00C0      		rjmp .L70
 542               	.L73:
 543               	.LM53:
 544 0292 1123      		tst r17
 545 0294 01F0      		breq .L70
 546 0296 80E3      		ldi r24,lo8(48)
 547 0298 8193      		st Z+,r24
 548               	.L70:
 549               	.LM54:
 550 029a C901      		movw r24,r18
 551 029c 6AE0      		ldi r22,lo8(10)
 552 029e 70E0      		ldi r23,hi8(10)
 553               	.LVL50:
 554 02a0 0E94 0000 		call __udivmodhi4
 555 02a4 9B01      		movw r18,r22
 556               	.LVL51:
 557               	.L60:
 558 02a6 2115      		cp r18,__zero_reg__
 559 02a8 3105      		cpc r19,__zero_reg__
 560 02aa 01F4      		brne .L63
 561               	.LVL52:
 562               	.L62:
 563               	.LM55:
 564 02ac 1082      		st Z,__zero_reg__
 565               	.LM56:
 566 02ae CF01      		movw r24,r30
 567               	/* epilogue: frame size=0 */
 568 02b0 DF91      		pop r29
 569 02b2 CF91      		pop r28
 570 02b4 1F91      		pop r17
 571 02b6 0895      		ret
 572               	/* epilogue end (size=4) */
 573               	/* function _2d size 70 (63) */
 574               	.LFE14:
 576               	.global	X2s
 578               	X2s:
 579               	.LFB15:
 580               	.LM57:
 581               	/* prologue: frame size=0 */
 582               	/* prologue end (size=0) */
 583               	.LVL53:
 584 02b8 FC01      		movw r30,r24
 585 02ba 40E0      		ldi r20,lo8(0)
 586 02bc 50E0      		ldi r21,hi8(0)
 587               	.LVL54:
 588 02be 00C0      		rjmp .L75
 589               	.LVL55:
 590               	.L76:
 591               	.LM58:
 592 02c0 822F      		mov r24,r18
 593 02c2 8053      		subi r24,lo8(-(-48))
 594 02c4 8A30      		cpi r24,lo8(10)
 595 02c6 00F4      		brsh .L77
 596 02c8 3327      		clr r19
 597 02ca 2053      		subi r18,lo8(-(-48))
 598 02cc 3040      		sbci r19,hi8(-(-48))
 599 02ce 00C0      		rjmp .L79
 600               	.L77:
 601 02d0 822F      		mov r24,r18
 602 02d2 8156      		subi r24,lo8(-(-97))
 603 02d4 8630      		cpi r24,lo8(6)
 604 02d6 00F4      		brsh .L80
 605 02d8 3327      		clr r19
 606 02da 2755      		subi r18,lo8(-(-87))
 607 02dc 3040      		sbci r19,hi8(-(-87))
 608 02de 00C0      		rjmp .L79
 609               	.L80:
 610 02e0 822F      		mov r24,r18
 611 02e2 8154      		subi r24,lo8(-(-65))
 612 02e4 8630      		cpi r24,lo8(6)
 613 02e6 00F0      		brlo .L82
 614 02e8 2FEF      		ldi r18,lo8(255)
 615 02ea 30E0      		ldi r19,hi8(255)
 616 02ec 00C0      		rjmp .L79
 617               	.L82:
 618 02ee 3327      		clr r19
 619 02f0 2753      		subi r18,lo8(-(-55))
 620 02f2 3040      		sbci r19,hi8(-(-55))
 621               	.L79:
 622               	.LM59:
 623 02f4 64E0      		ldi r22,4
 624 02f6 440F      	1:	lsl r20
 625 02f8 551F      		rol r21
 626 02fa 6A95      		dec r22
 627 02fc 01F4      		brne 1b
 628               	.LM60:
 629 02fe 420F      		add r20,r18
 630 0300 531F      		adc r21,r19
 631               	.LM61:
 632 0302 3196      		adiw r30,1
 633               	.LVL56:
 634               	.L75:
 635               	.LM62:
 636 0304 2081      		ld r18,Z
 637 0306 2132      		cpi r18,lo8(33)
 638 0308 00F0      		brlo .L84
 639 030a 2D33      		cpi r18,lo8(61)
 640 030c 01F4      		brne .L76
 641               	.L84:
 642               	.LM63:
 643 030e CA01      		movw r24,r20
 644               	/* epilogue: frame size=0 */
 645 0310 0895      		ret
 646               	/* epilogue end (size=1) */
 647               	/* function X2s size 45 (44) */
 648               	.LFE15:
 650               	.global	Get_Byte
 652               	Get_Byte:
 653               	.LFB22:
 654               	.LM64:
 655               	/* prologue: frame size=0 */
 656 0312 0F93      		push r16
 657 0314 1F93      		push r17
 658 0316 CF93      		push r28
 659 0318 DF93      		push r29
 660               	/* prologue end (size=4) */
 661               	.LVL57:
 662 031a EC01      		movw r28,r24
 663 031c 8B01      		movw r16,r22
 664               	.LM65:
 665 031e FB01      		movw r30,r22
 666 0320 1082      		st Z,__zero_reg__
 667 0322 00C0      		rjmp .L88
 668               	.LVL58:
 669               	.L89:
 670               	.LM66:
 671 0324 2196      		adiw r28,1
 672               	.LVL59:
 673               	.L88:
 674               	.LM67:
 675 0326 8881      		ld r24,Y
 676 0328 8032      		cpi r24,lo8(32)
 677 032a 01F0      		breq .L89
 678 032c 8A33      		cpi r24,lo8(58)
 679 032e 01F0      		breq .L89
 680               	.LM68:
 681 0330 8A30      		cpi r24,lo8(10)
 682 0332 01F0      		breq .L92
 683 0334 8D30      		cpi r24,lo8(13)
 684 0336 01F0      		breq .L92
 685               	.LM69:
 686 0338 8062      		ori r24,lo8(32)
 687 033a 8093 0000 		sts smbuff,r24
 688 033e 9E01      		movw r18,r28
 689               	.LVL60:
 690 0340 2F5F      		subi r18,lo8(-(1))
 691 0342 3F4F      		sbci r19,hi8(-(1))
 692               	.LM70:
 693 0344 8981      		ldd r24,Y+1
 694 0346 8062      		ori r24,lo8(32)
 695 0348 8093 0000 		sts smbuff+1,r24
 696 034c E901      		movw r28,r18
 697 034e 2196      		adiw r28,1
 698               	.LM71:
 699 0350 1092 0000 		sts smbuff+2,__zero_reg__
 700               	.LM72:
 701 0354 8D33      		cpi r24,lo8(61)
 702 0356 01F4      		brne .L95
 703               	.LM73:
 704 0358 E901      		movw r28,r18
 705               	.L95:
 706               	.LM74:
 707 035a 80E0      		ldi r24,lo8(smbuff)
 708 035c 90E0      		ldi r25,hi8(smbuff)
 709 035e 0E94 0000 		call X2s
 710               	.LVL61:
 711 0362 F801      		movw r30,r16
 712 0364 8083      		st Z,r24
 713               	.LVL62:
 714               	.L92:
 715               	.LM75:
 716 0366 CE01      		movw r24,r28
 717               	/* epilogue: frame size=0 */
 718 0368 DF91      		pop r29
 719 036a CF91      		pop r28
 720 036c 1F91      		pop r17
 721 036e 0F91      		pop r16
 722 0370 0895      		ret
 723               	/* epilogue end (size=5) */
 724               	/* function Get_Byte size 48 (39) */
 725               	.LFE22:
 727               	.global	printIP
 729               	printIP:
 730               	.LFB20:
 731               	.LM76:
 732               	/* prologue: frame size=0 */
 733 0372 EF92      		push r14
 734 0374 FF92      		push r15
 735 0376 0F93      		push r16
 736 0378 1F93      		push r17
 737               	/* prologue end (size=4) */
 738               	.LVL63:
 739 037a 7C01      		movw r14,r24
 740               	.LM77:
 741 037c 00E0      		ldi r16,lo8(smbuff)
 742 037e 10E0      		ldi r17,hi8(smbuff)
 743 0380 FC01      		movw r30,r24
 744 0382 8081      		ld r24,Z
 745               	.LVL64:
 746 0384 20E0      		ldi r18,lo8(0)
 747 0386 44E6      		ldi r20,lo8(100)
 748 0388 50E0      		ldi r21,hi8(100)
 749 038a B801      		movw r22,r16
 750 038c 9927      		clr r25
 751 038e 0E94 0000 		call _2d
 752               	.LM78:
 753 0392 C801      		movw r24,r16
 754 0394 0E94 0000 		call CONSOLE_puts
 755               	.LM79:
 756 0398 8EE2      		ldi r24,lo8(46)
 757 039a 0E94 0000 		call CONSOLE_putch
 758               	.LM80:
 759 039e F701      		movw r30,r14
 760 03a0 8181      		ldd r24,Z+1
 761 03a2 20E0      		ldi r18,lo8(0)
 762 03a4 44E6      		ldi r20,lo8(100)
 763 03a6 50E0      		ldi r21,hi8(100)
 764 03a8 B801      		movw r22,r16
 765 03aa 9927      		clr r25
 766 03ac 0E94 0000 		call _2d
 767               	.LM81:
 768 03b0 C801      		movw r24,r16
 769 03b2 0E94 0000 		call CONSOLE_puts
 770               	.LM82:
 771 03b6 8EE2      		ldi r24,lo8(46)
 772 03b8 0E94 0000 		call CONSOLE_putch
 773               	.LM83:
 774 03bc F701      		movw r30,r14
 775 03be 8281      		ldd r24,Z+2
 776 03c0 20E0      		ldi r18,lo8(0)
 777 03c2 44E6      		ldi r20,lo8(100)
 778 03c4 50E0      		ldi r21,hi8(100)
 779 03c6 B801      		movw r22,r16
 780 03c8 9927      		clr r25
 781 03ca 0E94 0000 		call _2d
 782               	.LM84:
 783 03ce C801      		movw r24,r16
 784 03d0 0E94 0000 		call CONSOLE_puts
 785               	.LM85:
 786 03d4 8EE2      		ldi r24,lo8(46)
 787 03d6 0E94 0000 		call CONSOLE_putch
 788               	.LM86:
 789 03da F701      		movw r30,r14
 790 03dc 8381      		ldd r24,Z+3
 791 03de 20E0      		ldi r18,lo8(0)
 792 03e0 44E6      		ldi r20,lo8(100)
 793 03e2 50E0      		ldi r21,hi8(100)
 794 03e4 B801      		movw r22,r16
 795 03e6 9927      		clr r25
 796 03e8 0E94 0000 		call _2d
 797               	.LM87:
 798 03ec C801      		movw r24,r16
 799 03ee 0E94 0000 		call CONSOLE_puts
 800               	/* epilogue: frame size=0 */
 801 03f2 1F91      		pop r17
 802 03f4 0F91      		pop r16
 803 03f6 FF90      		pop r15
 804 03f8 EF90      		pop r14
 805 03fa 0895      		ret
 806               	/* epilogue end (size=5) */
 807               	/* function printIP size 69 (60) */
 808               	.LFE20:
 810               	.global	printWord
 812               	printWord:
 813               	.LFB18:
 814               	.LM88:
 815               	/* prologue: frame size=0 */
 816 03fc 0F93      		push r16
 817 03fe 1F93      		push r17
 818               	/* prologue end (size=2) */
 819               	.LVL65:
 820               	.LM89:
 821 0400 00E0      		ldi r16,lo8(smbuff)
 822 0402 10E0      		ldi r17,hi8(smbuff)
 823 0404 B801      		movw r22,r16
 824 0406 0E94 0000 		call s2X
 825               	.LVL66:
 826               	.LM90:
 827 040a C801      		movw r24,r16
 828 040c 0E94 0000 		call CONSOLE_puts
 829               	/* epilogue: frame size=0 */
 830 0410 1F91      		pop r17
 831 0412 0F91      		pop r16
 832 0414 0895      		ret
 833               	/* epilogue end (size=3) */
 834               	/* function printWord size 13 (8) */
 835               	.LFE18:
 837               	.global	printByte
 839               	printByte:
 840               	.LFB17:
 841               	.LM91:
 842               	/* prologue: frame size=0 */
 843 0416 0F93      		push r16
 844 0418 1F93      		push r17
 845               	/* prologue end (size=2) */
 846               	.LVL67:
 847               	.LM92:
 848 041a 00E0      		ldi r16,lo8(smbuff)
 849 041c 10E0      		ldi r17,hi8(smbuff)
 850 041e B801      		movw r22,r16
 851 0420 0E94 0000 		call b2X
 852               	.LVL68:
 853               	.LM93:
 854 0424 C801      		movw r24,r16
 855 0426 0E94 0000 		call CONSOLE_puts
 856               	/* epilogue: frame size=0 */
 857 042a 1F91      		pop r17
 858 042c 0F91      		pop r16
 859 042e 0895      		ret
 860               	/* epilogue end (size=3) */
 861               	/* function printByte size 13 (8) */
 862               	.LFE17:
 864               	.global	printMAC
 866               	printMAC:
 867               	.LFB21:
 868               	.LM94:
 869               	/* prologue: frame size=0 */
 870 0430 0F93      		push r16
 871 0432 1F93      		push r17
 872               	/* prologue end (size=2) */
 873               	.LVL69:
 874 0434 8C01      		movw r16,r24
 875               	.LM95:
 876 0436 FC01      		movw r30,r24
 877 0438 8081      		ld r24,Z
 878               	.LVL70:
 879 043a 0E94 0000 		call printByte
 880               	.LM96:
 881 043e 8AE3      		ldi r24,lo8(58)
 882 0440 0E94 0000 		call CONSOLE_putch
 883               	.LM97:
 884 0444 F801      		movw r30,r16
 885 0446 8181      		ldd r24,Z+1
 886 0448 0E94 0000 		call printByte
 887               	.LM98:
 888 044c 8AE3      		ldi r24,lo8(58)
 889 044e 0E94 0000 		call CONSOLE_putch
 890               	.LM99:
 891 0452 F801      		movw r30,r16
 892 0454 8281      		ldd r24,Z+2
 893 0456 0E94 0000 		call printByte
 894               	.LM100:
 895 045a 8AE3      		ldi r24,lo8(58)
 896 045c 0E94 0000 		call CONSOLE_putch
 897               	.LM101:
 898 0460 F801      		movw r30,r16
 899 0462 8381      		ldd r24,Z+3
 900 0464 0E94 0000 		call printByte
 901               	.LM102:
 902 0468 8AE3      		ldi r24,lo8(58)
 903 046a 0E94 0000 		call CONSOLE_putch
 904               	.LM103:
 905 046e F801      		movw r30,r16
 906 0470 8481      		ldd r24,Z+4
 907 0472 0E94 0000 		call printByte
 908               	.LM104:
 909 0476 8AE3      		ldi r24,lo8(58)
 910 0478 0E94 0000 		call CONSOLE_putch
 911               	.LM105:
 912 047c F801      		movw r30,r16
 913 047e 8581      		ldd r24,Z+5
 914 0480 0E94 0000 		call printByte
 915               	/* epilogue: frame size=0 */
 916 0484 1F91      		pop r17
 917 0486 0F91      		pop r16
 918 0488 0895      		ret
 919               	/* epilogue end (size=3) */
 920               	/* function printMAC size 45 (40) */
 921               	.LFE21:
 923               	.global	printDWord
 925               	printDWord:
 926               	.LFB19:
 927               	.LM106:
 928               	/* prologue: frame size=4 */
 929 048a CF93      		push r28
 930 048c DF93      		push r29
 931 048e CDB7      		in r28,__SP_L__
 932 0490 DEB7      		in r29,__SP_H__
 933 0492 2497      		sbiw r28,4
 934 0494 0FB6      		in __tmp_reg__,__SREG__
 935 0496 F894      		cli
 936 0498 DEBF      		out __SP_H__,r29
 937 049a 0FBE      		out __SREG__,__tmp_reg__
 938 049c CDBF      		out __SP_L__,r28
 939               	/* prologue end (size=10) */
 940               	.LVL71:
 941 049e 6983      		std Y+1,r22
 942 04a0 7A83      		std Y+2,r23
 943 04a2 8B83      		std Y+3,r24
 944 04a4 9C83      		std Y+4,r25
 945               	.LM107:
 946 04a6 8C81      		ldd r24,Y+4
 947 04a8 0E94 0000 		call printByte
 948               	.LVL72:
 949               	.LM108:
 950 04ac 8B81      		ldd r24,Y+3
 951 04ae 0E94 0000 		call printByte
 952               	.LM109:
 953 04b2 FE01      		movw r30,r28
 954               	.LVL73:
 955 04b4 3196      		adiw r30,1
 956 04b6 8181      		ldd r24,Z+1
 957 04b8 0E94 0000 		call printByte
 958               	.LVL74:
 959               	.LM110:
 960 04bc 8981      		ldd r24,Y+1
 961 04be 0E94 0000 		call printByte
 962               	/* epilogue: frame size=4 */
 963 04c2 2496      		adiw r28,4
 964 04c4 0FB6      		in __tmp_reg__,__SREG__
 965 04c6 F894      		cli
 966 04c8 DEBF      		out __SP_H__,r29
 967 04ca 0FBE      		out __SREG__,__tmp_reg__
 968 04cc CDBF      		out __SP_L__,r28
 969 04ce DF91      		pop r29
 970 04d0 CF91      		pop r28
 971 04d2 0895      		ret
 972               	/* epilogue end (size=9) */
 973               	/* function printDWord size 37 (18) */
 974               	.LFE19:
 976               	.global	printShort
 978               	printShort:
 979               	.LFB16:
 980               	.LM111:
 981               	/* prologue: frame size=0 */
 982 04d4 0F93      		push r16
 983 04d6 1F93      		push r17
 984               	/* prologue end (size=2) */
 985               	.LVL75:
 986               	.LM112:
 987 04d8 00E0      		ldi r16,lo8(smbuff)
 988 04da 10E0      		ldi r17,hi8(smbuff)
 989 04dc 20E0      		ldi r18,lo8(0)
 990 04de 40E1      		ldi r20,lo8(10000)
 991 04e0 57E2      		ldi r21,hi8(10000)
 992 04e2 B801      		movw r22,r16
 993 04e4 0E94 0000 		call _2d
 994               	.LVL76:
 995               	.LM113:
 996 04e8 C801      		movw r24,r16
 997 04ea 0E94 0000 		call CONSOLE_puts
 998               	/* epilogue: frame size=0 */
 999 04ee 1F91      		pop r17
 1000 04f0 0F91      		pop r16
 1001 04f2 0895      		ret
 1002               	/* epilogue end (size=3) */
 1003               	/* function printShort size 16 (11) */
 1004               	.LFE16:
 1006               		.comm boot_version,2,1
 1007               		.comm crc_boot,2,1
 1008               		.comm bootloader,2,1
 1137               	.Letext0:
DEFINED SYMBOLS
                            *ABS*:00000000 conio.c
C:\DOCUME~1\mike\LOCALS~1\Temp/ccF8tIS7.s:3      *ABS*:0000003f __SREG__
C:\DOCUME~1\mike\LOCALS~1\Temp/ccF8tIS7.s:4      *ABS*:0000003e __SP_H__
C:\DOCUME~1\mike\LOCALS~1\Temp/ccF8tIS7.s:5      *ABS*:0000003d __SP_L__
C:\DOCUME~1\mike\LOCALS~1\Temp/ccF8tIS7.s:6      *ABS*:00000000 __tmp_reg__
C:\DOCUME~1\mike\LOCALS~1\Temp/ccF8tIS7.s:7      *ABS*:00000001 __zero_reg__
C:\DOCUME~1\mike\LOCALS~1\Temp/ccF8tIS7.s:20     .text:00000000 b2X
C:\DOCUME~1\mike\LOCALS~1\Temp/ccF8tIS7.s:84     .text:00000048 s2X
C:\DOCUME~1\mike\LOCALS~1\Temp/ccF8tIS7.s:189    .text:000000d2 s2ip
C:\DOCUME~1\mike\LOCALS~1\Temp/ccF8tIS7.s:359    .text:000001bc d2s
C:\DOCUME~1\mike\LOCALS~1\Temp/ccF8tIS7.s:407    .text:000001f0 s2p
C:\DOCUME~1\mike\LOCALS~1\Temp/ccF8tIS7.s:460    .text:0000022e _2d
C:\DOCUME~1\mike\LOCALS~1\Temp/ccF8tIS7.s:578    .text:000002b8 X2s
C:\DOCUME~1\mike\LOCALS~1\Temp/ccF8tIS7.s:652    .text:00000312 Get_Byte
C:\DOCUME~1\mike\LOCALS~1\Temp/ccF8tIS7.s:729    .text:00000372 printIP
C:\DOCUME~1\mike\LOCALS~1\Temp/ccF8tIS7.s:812    .text:000003fc printWord
C:\DOCUME~1\mike\LOCALS~1\Temp/ccF8tIS7.s:839    .text:00000416 printByte
C:\DOCUME~1\mike\LOCALS~1\Temp/ccF8tIS7.s:866    .text:00000430 printMAC
C:\DOCUME~1\mike\LOCALS~1\Temp/ccF8tIS7.s:925    .text:0000048a printDWord
C:\DOCUME~1\mike\LOCALS~1\Temp/ccF8tIS7.s:978    .text:000004d4 printShort
                            *COM*:00000002 boot_version
                            *COM*:00000002 crc_boot
                            *COM*:00000002 bootloader

UNDEFINED SYMBOLS
__do_copy_data
__do_clear_bss
__udivmodhi4
smbuff
CONSOLE_puts
CONSOLE_putch
