   1               		.file	"dhcp.c"
   2               		.arch atmega64
   3               	__SREG__ = 0x3f
   4               	__SP_H__ = 0x3e
   5               	__SP_L__ = 0x3d
   6               	__tmp_reg__ = 0
   7               	__zero_reg__ = 1
   8               		.global __do_copy_data
   9               		.global __do_clear_bss
  17               	.Ltext0:
  18               	.global	dhcpGetOption
  20               	dhcpGetOption:
  21               	.LFB5:
  22               	.LM1:
  23               	/* prologue: frame size=0 */
  24 0000 0F93      		push r16
  25 0002 1F93      		push r17
  26 0004 CF93      		push r28
  27 0006 DF93      		push r29
  28               	/* prologue end (size=4) */
  29               	.LVL0:
  30 0008 EC01      		movw r28,r24
  31 000a 8901      		movw r16,r18
  32               	.LVL1:
  33               	.L19:
  34               	.LM2:
  35 000c 5881      		ld r21,Y
  36 000e 5523      		tst r21
  37 0010 01F0      		breq .L20
  38               	.LM3:
  39 0012 5F3F      		cpi r21,lo8(-1)
  40 0014 01F0      		breq .L6
  41 0016 CE01      		movw r24,r28
  42 0018 0196      		adiw r24,1
  43 001a 7981      		ldd r23,Y+1
  44               	.LM4:
  45 001c 5617      		cp r21,r22
  46 001e 01F4      		brne .L8
  47               	.LM5:
  48 0020 9C01      		movw r18,r24
  49 0022 572F      		mov r21,r23
  50               	.LVL2:
  51 0024 4717      		cp r20,r23
  52 0026 00F4      		brsh .L10
  53               	.LVL3:
  54 0028 542F      		mov r21,r20
  55               	.L10:
  56 002a 40E0      		ldi r20,lo8(0)
  57               	.LVL4:
  58 002c 00C0      		rjmp .L11
  59               	.LVL5:
  60               	.L12:
  61               	.LM6:
  62 002e E42F      		mov r30,r20
  63 0030 FF27      		clr r31
  64 0032 D801      		movw r26,r16
  65 0034 AE0F      		add r26,r30
  66 0036 BF1F      		adc r27,r31
  67 0038 EC0F      		add r30,r28
  68 003a FD1F      		adc r31,r29
  69 003c 8281      		ldd r24,Z+2
  70 003e 8C93      		st X,r24
  71               	.LM7:
  72 0040 4F5F      		subi r20,lo8(-(1))
  73               	.L11:
  74 0042 4517      		cp r20,r21
  75 0044 01F4      		brne .L12
  76 0046 00C0      		rjmp .L13
  77               	.LVL6:
  78               	.L8:
  79               	.LM8:
  80 0048 EC01      		movw r28,r24
  81 004a C70F      		add r28,r23
  82 004c D11D      		adc r29,__zero_reg__
  83               	.LVL7:
  84               	.L20:
  85               	.LM9:
  86 004e 2196      		adiw r28,1
  87 0050 00C0      		rjmp .L19
  88               	.L6:
  89 0052 20E0      		ldi r18,lo8(0)
  90 0054 30E0      		ldi r19,hi8(0)
  91               	.LVL8:
  92               	.L13:
  93               	.LM10:
  94 0056 C901      		movw r24,r18
  95               	/* epilogue: frame size=0 */
  96 0058 DF91      		pop r29
  97 005a CF91      		pop r28
  98 005c 1F91      		pop r17
  99 005e 0F91      		pop r16
 100 0060 0895      		ret
 101               	/* epilogue end (size=5) */
 102               	/* function dhcpGetOption size 49 (40) */
 103               	.LFE5:
 105               	.global	dhcpSetOption
 107               	dhcpSetOption:
 108               	.LFB6:
 109               	.LM11:
 110               	/* prologue: frame size=0 */
 111 0062 CF93      		push r28
 112 0064 DF93      		push r29
 113               	/* prologue end (size=2) */
 114               	.LVL9:
 115 0066 FC01      		movw r30,r24
 116 0068 542F      		mov r21,r20
 117 006a E901      		movw r28,r18
 118               	.LM12:
 119 006c DC01      		movw r26,r24
 120               	.LVL10:
 121 006e 6D93      		st X+,r22
 122               	.LM13:
 123 0070 4183      		std Z+1,r20
 124 0072 1196      		adiw r26,1
 125               	.LVL11:
 126 0074 942F      		mov r25,r20
 127               	.LVL12:
 128 0076 00C0      		rjmp .L22
 129               	.LVL13:
 130               	.L23:
 131               	.LM14:
 132 0078 8991      		ld r24,Y+
 133               	.LVL14:
 134 007a 8183      		std Z+1,r24
 135               	.LVL15:
 136               	.L22:
 137               	.LM15:
 138 007c 9150      		subi r25,lo8(-(-1))
 139               	.LVL16:
 140 007e 3196      		adiw r30,1
 141 0080 9F3F      		cpi r25,lo8(-1)
 142 0082 01F4      		brne .L23
 143 0084 FD01      		movw r30,r26
 144               	.LVL17:
 145 0086 E50F      		add r30,r21
 146 0088 F11D      		adc r31,__zero_reg__
 147               	.LM16:
 148 008a 9083      		st Z,r25
 149               	.LM17:
 150 008c CF01      		movw r24,r30
 151               	.LVL18:
 152               	/* epilogue: frame size=0 */
 153 008e DF91      		pop r29
 154 0090 CF91      		pop r28
 155 0092 0895      		ret
 156               	/* epilogue end (size=3) */
 157               	/* function dhcpSetOption size 25 (20) */
 158               	.LFE6:
 160               	.global	dhcp_init
 162               	dhcp_init:
 163               	.LFB3:
 164               	.LM18:
 165               	/* prologue: frame size=7 */
 166 0094 DF92      		push r13
 167 0096 EF92      		push r14
 168 0098 FF92      		push r15
 169 009a 0F93      		push r16
 170 009c 1F93      		push r17
 171 009e CF93      		push r28
 172 00a0 DF93      		push r29
 173 00a2 CDB7      		in r28,__SP_L__
 174 00a4 DEB7      		in r29,__SP_H__
 175 00a6 2797      		sbiw r28,7
 176 00a8 0FB6      		in __tmp_reg__,__SREG__
 177 00aa F894      		cli
 178 00ac DEBF      		out __SP_H__,r29
 179 00ae 0FBE      		out __SREG__,__tmp_reg__
 180 00b0 CDBF      		out __SP_L__,r28
 181               	/* prologue end (size=15) */
 182               	.LM19:
 183 00b2 CE01      		movw r24,r28
 184 00b4 0296      		adiw r24,2
 185 00b6 0E94 0000 		call nicGetMacAddress
 186               	.LM20:
 187 00ba 8A81      		ldd r24,Y+2
 188 00bc 9B81      		ldd r25,Y+3
 189 00be AC81      		ldd r26,Y+4
 190 00c0 BD81      		ldd r27,Y+5
 191 00c2 8093 0000 		sts DhcpTransactID,r24
 192 00c6 9093 0000 		sts (DhcpTransactID)+1,r25
 193 00ca A093 0000 		sts (DhcpTransactID)+2,r26
 194 00ce B093 0000 		sts (DhcpTransactID)+3,r27
 195               	.LM21:
 196 00d2 1092 0000 		sts DhcpLeaseTime,__zero_reg__
 197 00d6 1092 0000 		sts (DhcpLeaseTime)+1,__zero_reg__
 198 00da 1092 0000 		sts (DhcpLeaseTime)+2,__zero_reg__
 199 00de 1092 0000 		sts (DhcpLeaseTime)+3,__zero_reg__
 200               	.LM22:
 201 00e2 60E0      		ldi r22,lo8(gs(dhcp_callback))
 202 00e4 70E0      		ldi r23,hi8(gs(dhcp_callback))
 203 00e6 84E4      		ldi r24,lo8(68)
 204 00e8 90E0      		ldi r25,hi8(68)
 205 00ea 0E94 0000 		call udp_bind
 206 00ee D82E      		mov r13,r24
 207               	.LM23:
 208 00f0 8823      		tst r24
 209 00f2 01F4      		brne .L27
 210               	.LM24:
 211 00f4 80E0      		ldi r24,lo8(0)
 212 00f6 90E0      		ldi r25,hi8(0)
 213 00f8 00C0      		rjmp .L29
 214               	.L27:
 215               	.LM25:
 216 00fa 00E0      		ldi r16,lo8(rx_pkt)
 217 00fc 10E0      		ldi r17,hi8(rx_pkt)
 218               	.LVL19:
 219               	.LM26:
 220 00fe 84EF      		ldi r24,lo8(-12)
 221 0100 F801      		movw r30,r16
 222 0102 1192      		st Z+,__zero_reg__
 223 0104 8A95      	        dec r24
 224 0106 01F4      		brne .-6
 225               	.LM27:
 226 0108 91E0      		ldi r25,lo8(1)
 227 010a F92E      		mov r15,r25
 228 010c F092 0000 		sts rx_pkt,r15
 229               	.LM28:
 230 0110 F092 0000 		sts rx_pkt+1,r15
 231               	.LM29:
 232 0114 86E0      		ldi r24,lo8(6)
 233 0116 8093 0000 		sts rx_pkt+2,r24
 234               	.LM30:
 235 011a 1092 0000 		sts rx_pkt+3,__zero_reg__
 236               	.LM31:
 237 011e 1092 0000 		sts (rx_pkt+8)+1,__zero_reg__
 238 0122 1092 0000 		sts rx_pkt+8,__zero_reg__
 239               	.LM32:
 240 0126 1092 0000 		sts (rx_pkt+10)+1,__zero_reg__
 241 012a 1092 0000 		sts rx_pkt+10,__zero_reg__
 242               	.LM33:
 243 012e 1092 0000 		sts rx_pkt+12,__zero_reg__
 244 0132 1092 0000 		sts (rx_pkt+12)+1,__zero_reg__
 245 0136 1092 0000 		sts (rx_pkt+12)+2,__zero_reg__
 246 013a 1092 0000 		sts (rx_pkt+12)+3,__zero_reg__
 247               	.LM34:
 248 013e 1092 0000 		sts rx_pkt+16,__zero_reg__
 249 0142 1092 0000 		sts (rx_pkt+16)+1,__zero_reg__
 250 0146 1092 0000 		sts (rx_pkt+16)+2,__zero_reg__
 251 014a 1092 0000 		sts (rx_pkt+16)+3,__zero_reg__
 252               	.LM35:
 253 014e 1092 0000 		sts rx_pkt+20,__zero_reg__
 254 0152 1092 0000 		sts (rx_pkt+20)+1,__zero_reg__
 255 0156 1092 0000 		sts (rx_pkt+20)+2,__zero_reg__
 256 015a 1092 0000 		sts (rx_pkt+20)+3,__zero_reg__
 257               	.LM36:
 258 015e 1092 0000 		sts rx_pkt+24,__zero_reg__
 259 0162 1092 0000 		sts (rx_pkt+24)+1,__zero_reg__
 260 0166 1092 0000 		sts (rx_pkt+24)+2,__zero_reg__
 261 016a 1092 0000 		sts (rx_pkt+24)+3,__zero_reg__
 262               	.LM37:
 263 016e C801      		movw r24,r16
 264 0170 4C96      		adiw r24,28
 265 0172 0E94 0000 		call nicGetMacAddress
 266               	.LM38:
 267 0176 8091 0000 		lds r24,DhcpTransactID
 268 017a 9091 0000 		lds r25,(DhcpTransactID)+1
 269 017e A091 0000 		lds r26,(DhcpTransactID)+2
 270 0182 B091 0000 		lds r27,(DhcpTransactID)+3
 271 0186 8093 0000 		sts rx_pkt+4,r24
 272 018a 9093 0000 		sts (rx_pkt+4)+1,r25
 273 018e A093 0000 		sts (rx_pkt+4)+2,r26
 274 0192 B093 0000 		sts (rx_pkt+4)+3,r27
 275               	.LM39:
 276 0196 83E6      		ldi r24,lo8(1666417251)
 277 0198 92E8      		ldi r25,hi8(1666417251)
 278 019a A3E5      		ldi r26,hlo8(1666417251)
 279 019c B3E6      		ldi r27,hhi8(1666417251)
 280 019e 8093 0000 		sts rx_pkt+236,r24
 281 01a2 9093 0000 		sts (rx_pkt+236)+1,r25
 282 01a6 A093 0000 		sts (rx_pkt+236)+2,r26
 283 01aa B093 0000 		sts (rx_pkt+236)+3,r27
 284               	.LM40:
 285 01ae F982      		std Y+1,r15
 286               	.LVL20:
 287               	.LM41:
 288 01b0 9E01      		movw r18,r28
 289 01b2 2F5F      		subi r18,lo8(-(1))
 290 01b4 3F4F      		sbci r19,hi8(-(1))
 291 01b6 41E0      		ldi r20,lo8(1)
 292 01b8 65E3      		ldi r22,lo8(53)
 293 01ba 80E0      		ldi r24,lo8(rx_pkt+240)
 294 01bc 90E0      		ldi r25,hi8(rx_pkt+240)
 295 01be 0E94 0000 		call dhcpSetOption
 296               	.LM42:
 297 01c2 84EF      		ldi r24,lo8(244)
 298 01c4 E82E      		mov r14,r24
 299 01c6 F12C      		mov r15,__zero_reg__
 300 01c8 24E4      		ldi r18,lo8(68)
 301 01ca 30E0      		ldi r19,hi8(68)
 302 01cc 43E4      		ldi r20,lo8(67)
 303 01ce 50E0      		ldi r21,hi8(67)
 304 01d0 6FEF      		ldi r22,lo8(-1)
 305 01d2 7FEF      		ldi r23,hi8(-1)
 306 01d4 8FEF      		ldi r24,hlo8(-1)
 307 01d6 9FEF      		ldi r25,hhi8(-1)
 308               	.LVL21:
 309 01d8 0E94 0000 		call udp_tx
 310               	.LVL22:
 311               	.LM43:
 312 01dc 0E94 0000 		call TIMER_Get_Second
 313 01e0 8C01      		movw r16,r24
 314               	.LVL23:
 315               	.LM44:
 316 01e2 1092 0000 		sts dhcpflags,__zero_reg__
 317               	.L30:
 318               	.LM45:
 319 01e6 0E94 0000 		call TIMER_Get_Second
 320 01ea 801B      		sub r24,r16
 321 01ec 8630      		cpi r24,lo8(6)
 322 01ee 00F4      		brsh .L31
 323               	.LM46:
 324 01f0 0E94 0000 		call poll_serial
 325               	.LM47:
 326 01f4 8091 0000 		lds r24,dhcpflags
 327 01f8 8330      		cpi r24,lo8(3)
 328 01fa 01F0      		breq .L33
 329 01fc 00C0      		rjmp .L30
 330               	.L31:
 331               	.LM48:
 332 01fe 8091 0000 		lds r24,dhcpflags
 333 0202 8330      		cpi r24,lo8(3)
 334 0204 01F0      		breq .L33
 335 0206 19EF      		ldi r17,lo8(-7)
 336               	.LVL24:
 337 0208 00C0      		rjmp .L35
 338               	.LVL25:
 339               	.L33:
 340 020a 11E0      		ldi r17,lo8(1)
 341               	.LVL26:
 342               	.L35:
 343               	.LM49:
 344 020c 8D2D      		mov r24,r13
 345 020e 0E94 0000 		call udp_close
 346               	.LM50:
 347 0212 812F      		mov r24,r17
 348 0214 9927      		clr r25
 349 0216 87FD      		sbrc r24,7
 350 0218 9095      		com r25
 351               	.L29:
 352               	/* epilogue: frame size=7 */
 353 021a 2796      		adiw r28,7
 354 021c 0FB6      		in __tmp_reg__,__SREG__
 355 021e F894      		cli
 356 0220 DEBF      		out __SP_H__,r29
 357 0222 0FBE      		out __SREG__,__tmp_reg__
 358 0224 CDBF      		out __SP_L__,r28
 359 0226 DF91      		pop r29
 360 0228 CF91      		pop r28
 361 022a 1F91      		pop r17
 362 022c 0F91      		pop r16
 363 022e FF90      		pop r15
 364 0230 EF90      		pop r14
 365 0232 DF90      		pop r13
 366 0234 0895      		ret
 367               	/* epilogue end (size=14) */
 368               	/* function dhcp_init size 209 (180) */
 369               	.LFE3:
 371               	.global	dhcp_process
 373               	dhcp_process:
 374               	.LFB4:
 375               	.LM51:
 376               	/* prologue: frame size=0 */
 377 0236 FF92      		push r15
 378 0238 0F93      		push r16
 379 023a 1F93      		push r17
 380               	/* prologue end (size=3) */
 381               	.LVL27:
 382 023c F82E      		mov r15,r24
 383               	.LM52:
 384 023e 0091 0000 		lds r16,dhcp_timer
 385 0242 1091 0000 		lds r17,(dhcp_timer)+1
 386 0246 0E94 0000 		call TIMER_Get_Second
 387               	.LVL28:
 388 024a 0817      		cp r16,r24
 389 024c 1907      		cpc r17,r25
 390 024e 01F0      		breq .L39
 391               	.LM53:
 392 0250 0E94 0000 		call TIMER_Get_Second
 393 0254 9093 0000 		sts (dhcp_timer)+1,r25
 394 0258 8093 0000 		sts dhcp_timer,r24
 395               	.LM54:
 396 025c 8091 0000 		lds r24,DhcpLeaseTime
 397 0260 9091 0000 		lds r25,(DhcpLeaseTime)+1
 398 0264 A091 0000 		lds r26,(DhcpLeaseTime)+2
 399 0268 B091 0000 		lds r27,(DhcpLeaseTime)+3
 400 026c 0097      		sbiw r24,0
 401 026e A105      		cpc r26,__zero_reg__
 402 0270 B105      		cpc r27,__zero_reg__
 403 0272 01F0      		breq .L41
 404               	.LM55:
 405 0274 0197      		sbiw r24,1
 406 0276 A109      		sbc r26,__zero_reg__
 407 0278 B109      		sbc r27,__zero_reg__
 408 027a 8093 0000 		sts DhcpLeaseTime,r24
 409 027e 9093 0000 		sts (DhcpLeaseTime)+1,r25
 410 0282 A093 0000 		sts (DhcpLeaseTime)+2,r26
 411 0286 B093 0000 		sts (DhcpLeaseTime)+3,r27
 412               	.LM56:
 413 028a 0097      		sbiw r24,0
 414 028c A105      		cpc r26,__zero_reg__
 415 028e B105      		cpc r27,__zero_reg__
 416 0290 01F4      		brne .L39
 417               	.L41:
 418               	.LM57:
 419 0292 FF20      		tst r15
 420 0294 01F0      		breq .L39
 421               	.LM58:
 422 0296 0E94 0000 		call dhcp_init
 423 029a 282F      		mov r18,r24
 424 029c 3327      		clr r19
 425 029e 27FD      		sbrc r18,7
 426 02a0 3095      		com r19
 427               	.LVL29:
 428               	.LM59:
 429 02a2 8823      		tst r24
 430 02a4 01F4      		brne .L44
 431               	.LM60:
 432 02a6 8AE0      		ldi r24,lo8(10)
 433 02a8 90E0      		ldi r25,hi8(10)
 434 02aa A0E0      		ldi r26,hlo8(10)
 435 02ac B0E0      		ldi r27,hhi8(10)
 436 02ae 8093 0000 		sts DhcpLeaseTime,r24
 437 02b2 9093 0000 		sts (DhcpLeaseTime)+1,r25
 438 02b6 A093 0000 		sts (DhcpLeaseTime)+2,r26
 439 02ba B093 0000 		sts (DhcpLeaseTime)+3,r27
 440 02be 00C0      		rjmp .L44
 441               	.LVL30:
 442               	.L39:
 443 02c0 20E0      		ldi r18,lo8(0)
 444 02c2 30E0      		ldi r19,hi8(0)
 445               	.LVL31:
 446               	.L44:
 447               	.LM61:
 448 02c4 822F      		mov r24,r18
 449 02c6 9927      		clr r25
 450               	/* epilogue: frame size=0 */
 451 02c8 1F91      		pop r17
 452 02ca 0F91      		pop r16
 453 02cc FF90      		pop r15
 454 02ce 0895      		ret
 455               	/* epilogue end (size=4) */
 456               	/* function dhcp_process size 77 (70) */
 457               	.LFE4:
 459               	.global	dhcp_callback
 461               	dhcp_callback:
 462               	.LFB2:
 463               	.LM62:
 464               	/* prologue: frame size=9 */
 465 02d0 8F92      		push r8
 466 02d2 9F92      		push r9
 467 02d4 AF92      		push r10
 468 02d6 BF92      		push r11
 469 02d8 DF92      		push r13
 470 02da EF92      		push r14
 471 02dc FF92      		push r15
 472 02de 0F93      		push r16
 473 02e0 1F93      		push r17
 474 02e2 CF93      		push r28
 475 02e4 DF93      		push r29
 476 02e6 CDB7      		in r28,__SP_L__
 477 02e8 DEB7      		in r29,__SP_H__
 478 02ea 2997      		sbiw r28,9
 479 02ec 0FB6      		in __tmp_reg__,__SREG__
 480 02ee F894      		cli
 481 02f0 DEBF      		out __SP_H__,r29
 482 02f2 0FBE      		out __SREG__,__tmp_reg__
 483 02f4 CDBF      		out __SP_L__,r28
 484               	/* prologue end (size=19) */
 485               	.LVL32:
 486               	.LM63:
 487 02f6 E8E0      		ldi r30,lo8(8)
 488 02f8 8E2E      		mov r8,r30
 489 02fa 912C      		mov r9,__zero_reg__
 490               	.LVL33:
 491 02fc 860E      		add r8,r22
 492 02fe 971E      		adc r9,r23
 493               	.LM64:
 494 0300 FB01      		movw r30,r22
 495 0302 1085      		ldd r17,Z+8
 496 0304 1230      		cpi r17,lo8(2)
 497 0306 01F0      		breq .+2
 498 0308 00C0      		rjmp .L60
 499               	.LM65:
 500 030a F401      		movw r30,r8
 501 030c 2481      		ldd r18,Z+4
 502 030e 3581      		ldd r19,Z+5
 503 0310 4681      		ldd r20,Z+6
 504 0312 5781      		ldd r21,Z+7
 505 0314 8091 0000 		lds r24,DhcpTransactID
 506 0318 9091 0000 		lds r25,(DhcpTransactID)+1
 507 031c A091 0000 		lds r26,(DhcpTransactID)+2
 508 0320 B091 0000 		lds r27,(DhcpTransactID)+3
 509               	.LVL34:
 510 0324 2817      		cp r18,r24
 511 0326 3907      		cpc r19,r25
 512 0328 4A07      		cpc r20,r26
 513 032a 5B07      		cpc r21,r27
 514 032c 01F0      		breq .+2
 515 032e 00C0      		rjmp .L60
 516               	.LM66:
 517 0330 58EF      		ldi r21,lo8(248)
 518 0332 A52E      		mov r10,r21
 519 0334 B12C      		mov r11,__zero_reg__
 520 0336 A60E      		add r10,r22
 521 0338 B71E      		adc r11,r23
 522 033a 9E01      		movw r18,r28
 523 033c 2F5F      		subi r18,lo8(-(1))
 524 033e 3F4F      		sbci r19,hi8(-(1))
 525 0340 41E0      		ldi r20,lo8(1)
 526               	.LVL35:
 527 0342 65E3      		ldi r22,lo8(53)
 528               	.LVL36:
 529 0344 C501      		movw r24,r10
 530 0346 0E94 0000 		call dhcpGetOption
 531               	.LVL37:
 532               	.LM67:
 533 034a 8981      		ldd r24,Y+1
 534 034c 8230      		cpi r24,lo8(2)
 535 034e 01F4      		brne .L51
 536               	.LM68:
 537 0350 81E0      		ldi r24,lo8(1)
 538 0352 8093 0000 		sts dhcpflags,r24
 539 0356 00C0      		rjmp .L53
 540               	.L51:
 541               	.LM69:
 542 0358 8530      		cpi r24,lo8(5)
 543 035a 01F0      		breq .+2
 544 035c 00C0      		rjmp .L60
 545               	.LM70:
 546 035e 8091 0000 		lds r24,dhcpflags
 547 0362 8230      		cpi r24,lo8(2)
 548 0364 01F4      		brne .L55
 549               	.LM71:
 550 0366 83E0      		ldi r24,lo8(3)
 551 0368 8093 0000 		sts dhcpflags,r24
 552 036c 00C0      		rjmp .L60
 553               	.L55:
 554               	.LM72:
 555 036e 1093 0000 		sts dhcpflags,r17
 556               	.LM73:
 557 0372 F401      		movw r30,r8
 558 0374 8089      		ldd r24,Z+16
 559 0376 9189      		ldd r25,Z+17
 560 0378 A289      		ldd r26,Z+18
 561 037a B389      		ldd r27,Z+19
 562 037c 8093 0000 		sts mm+21,r24
 563 0380 9093 0000 		sts (mm+21)+1,r25
 564 0384 A093 0000 		sts (mm+21)+2,r26
 565 0388 B093 0000 		sts (mm+21)+3,r27
 566               	.LM74:
 567 038c 20E0      		ldi r18,lo8(mm+25)
 568 038e 30E0      		ldi r19,hi8(mm+25)
 569 0390 44E0      		ldi r20,lo8(4)
 570 0392 61E0      		ldi r22,lo8(1)
 571 0394 C501      		movw r24,r10
 572 0396 0E94 0000 		call dhcpGetOption
 573               	.LM75:
 574 039a 20E0      		ldi r18,lo8(mm+29)
 575 039c 30E0      		ldi r19,hi8(mm+29)
 576 039e 44E0      		ldi r20,lo8(4)
 577 03a0 63E0      		ldi r22,lo8(3)
 578 03a2 C501      		movw r24,r10
 579 03a4 0E94 0000 		call dhcpGetOption
 580               	.LM76:
 581 03a8 20E0      		ldi r18,lo8(DhcpLeaseTime)
 582 03aa 30E0      		ldi r19,hi8(DhcpLeaseTime)
 583 03ac 44E0      		ldi r20,lo8(4)
 584 03ae 63E3      		ldi r22,lo8(51)
 585 03b0 C501      		movw r24,r10
 586 03b2 0E94 0000 		call dhcpGetOption
 587               	.LM77:
 588 03b6 20E0      		ldi r18,lo8(mm+33)
 589 03b8 30E0      		ldi r19,hi8(mm+33)
 590 03ba 48E0      		ldi r20,lo8(8)
 591 03bc 66E0      		ldi r22,lo8(6)
 592 03be C501      		movw r24,r10
 593 03c0 0E94 0000 		call dhcpGetOption
 594               	.LM78:
 595 03c4 0E94 0000 		call ipConfig
 596               	.L53:
 597               	.LM79:
 598 03c8 46E0      		ldi r20,lo8(6)
 599 03ca E42E      		mov r14,r20
 600 03cc F12C      		mov r15,__zero_reg__
 601 03ce EC0E      		add r14,r28
 602 03d0 FD1E      		adc r15,r29
 603 03d2 9701      		movw r18,r14
 604 03d4 44E0      		ldi r20,lo8(4)
 605 03d6 66E3      		ldi r22,lo8(54)
 606 03d8 C501      		movw r24,r10
 607 03da 0E94 0000 		call dhcpGetOption
 608               	.LM80:
 609 03de 31E0      		ldi r19,lo8(1)
 610 03e0 D32E      		mov r13,r19
 611 03e2 F401      		movw r30,r8
 612 03e4 D082      		st Z,r13
 613               	.LM81:
 614 03e6 83E0      		ldi r24,lo8(3)
 615 03e8 90E0      		ldi r25,hi8(3)
 616 03ea A0E0      		ldi r26,hlo8(3)
 617 03ec B0E0      		ldi r27,hhi8(3)
 618 03ee 8A83      		std Y+2,r24
 619 03f0 9B83      		std Y+3,r25
 620 03f2 AC83      		std Y+4,r26
 621 03f4 BD83      		std Y+5,r27
 622               	.LVL38:
 623               	.LM82:
 624 03f6 8E01      		movw r16,r28
 625 03f8 0E5F      		subi r16,lo8(-(2))
 626 03fa 1F4F      		sbci r17,hi8(-(2))
 627 03fc 9801      		movw r18,r16
 628 03fe 41E0      		ldi r20,lo8(1)
 629 0400 65E3      		ldi r22,lo8(53)
 630 0402 C501      		movw r24,r10
 631 0404 0E94 0000 		call dhcpSetOption
 632               	.LM83:
 633 0408 9701      		movw r18,r14
 634 040a 44E0      		ldi r20,lo8(4)
 635 040c 66E3      		ldi r22,lo8(54)
 636 040e 0E94 0000 		call dhcpSetOption
 637               	.LM84:
 638 0412 9401      		movw r18,r8
 639 0414 205F      		subi r18,lo8(-(16))
 640 0416 3F4F      		sbci r19,hi8(-(16))
 641 0418 44E0      		ldi r20,lo8(4)
 642 041a 62E3      		ldi r22,lo8(50)
 643 041c 0E94 0000 		call dhcpSetOption
 644               	.LM85:
 645 0420 DA82      		std Y+2,r13
 646               	.LM86:
 647 0422 23E0      		ldi r18,lo8(3)
 648 0424 2B83      		std Y+3,r18
 649               	.LM87:
 650 0426 26E0      		ldi r18,lo8(6)
 651 0428 F801      		movw r30,r16
 652 042a 2283      		std Z+2,r18
 653               	.LM88:
 654 042c 2FE0      		ldi r18,lo8(15)
 655 042e 2D83      		std Y+5,r18
 656               	.LM89:
 657 0430 9801      		movw r18,r16
 658 0432 44E0      		ldi r20,lo8(4)
 659 0434 67E3      		ldi r22,lo8(55)
 660 0436 0E94 0000 		call dhcpSetOption
 661               	.LM90:
 662 043a 8091 0000 		lds r24,dhcpflags
 663 043e 8130      		cpi r24,lo8(1)
 664 0440 01F4      		brne .L57
 665               	.LM91:
 666 0442 8FEF      		ldi r24,lo8(-1)
 667 0444 9FEF      		ldi r25,hi8(-1)
 668 0446 AFEF      		ldi r26,hlo8(-1)
 669 0448 BFEF      		ldi r27,hhi8(-1)
 670 044a 00C0      		rjmp .L61
 671               	.L57:
 672               	.LM92:
 673 044c 8E81      		ldd r24,Y+6
 674 044e 9F81      		ldd r25,Y+7
 675 0450 A885      		ldd r26,Y+8
 676 0452 B985      		ldd r27,Y+9
 677               	.L61:
 678 0454 8093 0000 		sts DhcpServerIP,r24
 679 0458 9093 0000 		sts (DhcpServerIP)+1,r25
 680 045c A093 0000 		sts (DhcpServerIP)+2,r26
 681 0460 B093 0000 		sts (DhcpServerIP)+3,r27
 682               	.LM93:
 683 0464 F401      		movw r30,r8
 684 0466 108E      		std Z+24,__zero_reg__
 685 0468 118E      		std Z+25,__zero_reg__
 686 046a 128E      		std Z+26,__zero_reg__
 687 046c 138E      		std Z+27,__zero_reg__
 688               	.LM94:
 689 046e 6091 0000 		lds r22,DhcpServerIP
 690 0472 7091 0000 		lds r23,(DhcpServerIP)+1
 691 0476 8091 0000 		lds r24,(DhcpServerIP)+2
 692 047a 9091 0000 		lds r25,(DhcpServerIP)+3
 693 047e 26E0      		ldi r18,lo8(262)
 694 0480 E22E      		mov r14,r18
 695 0482 21E0      		ldi r18,hi8(262)
 696 0484 F22E      		mov r15,r18
 697 0486 8401      		movw r16,r8
 698 0488 24E4      		ldi r18,lo8(68)
 699 048a 30E0      		ldi r19,hi8(68)
 700 048c 43E4      		ldi r20,lo8(67)
 701 048e 50E0      		ldi r21,hi8(67)
 702 0490 0E94 0000 		call udp_tx
 703               	.LVL39:
 704               	.L60:
 705               	/* epilogue: frame size=9 */
 706 0494 2996      		adiw r28,9
 707 0496 0FB6      		in __tmp_reg__,__SREG__
 708 0498 F894      		cli
 709 049a DEBF      		out __SP_H__,r29
 710 049c 0FBE      		out __SREG__,__tmp_reg__
 711 049e CDBF      		out __SP_L__,r28
 712 04a0 DF91      		pop r29
 713 04a2 CF91      		pop r28
 714 04a4 1F91      		pop r17
 715 04a6 0F91      		pop r16
 716 04a8 FF90      		pop r15
 717 04aa EF90      		pop r14
 718 04ac DF90      		pop r13
 719 04ae BF90      		pop r11
 720 04b0 AF90      		pop r10
 721 04b2 9F90      		pop r9
 722 04b4 8F90      		pop r8
 723 04b6 0895      		ret
 724               	/* epilogue end (size=18) */
 725               	/* function dhcp_callback size 244 (207) */
 726               	.LFE2:
 728               		.comm DhcpLeaseTime,4,1
 729               		.comm DhcpServerIP,4,1
 730               		.comm DhcpTransactID,4,1
 731               		.comm dhcp_timer,2,1
 732               		.comm dhcpflags,1,1
 789               	.Letext0:
DEFINED SYMBOLS
                            *ABS*:00000000 dhcp.c
C:\DOCUME~1\mike\LOCALS~1\Temp/ccqXCKAD.s:3      *ABS*:0000003f __SREG__
C:\DOCUME~1\mike\LOCALS~1\Temp/ccqXCKAD.s:4      *ABS*:0000003e __SP_H__
C:\DOCUME~1\mike\LOCALS~1\Temp/ccqXCKAD.s:5      *ABS*:0000003d __SP_L__
C:\DOCUME~1\mike\LOCALS~1\Temp/ccqXCKAD.s:6      *ABS*:00000000 __tmp_reg__
C:\DOCUME~1\mike\LOCALS~1\Temp/ccqXCKAD.s:7      *ABS*:00000001 __zero_reg__
C:\DOCUME~1\mike\LOCALS~1\Temp/ccqXCKAD.s:20     .text:00000000 dhcpGetOption
C:\DOCUME~1\mike\LOCALS~1\Temp/ccqXCKAD.s:107    .text:00000062 dhcpSetOption
C:\DOCUME~1\mike\LOCALS~1\Temp/ccqXCKAD.s:162    .text:00000094 dhcp_init
                            *COM*:00000004 DhcpTransactID
                            *COM*:00000004 DhcpLeaseTime
C:\DOCUME~1\mike\LOCALS~1\Temp/ccqXCKAD.s:461    .text:000002d0 dhcp_callback
                            *COM*:00000001 dhcpflags
C:\DOCUME~1\mike\LOCALS~1\Temp/ccqXCKAD.s:373    .text:00000236 dhcp_process
                            *COM*:00000002 dhcp_timer
                            *COM*:00000004 DhcpServerIP

UNDEFINED SYMBOLS
__do_copy_data
__do_clear_bss
nicGetMacAddress
udp_bind
rx_pkt
udp_tx
TIMER_Get_Second
poll_serial
udp_close
mm
ipConfig
